target datalayout = "e-m:e-p270:32:32-p271:32:32-p272:64:64-i64:64-i128:128-f80:128-n8:16:32:64-S128"
target triple = "x86_64-pc-linux-gnu"

%struct.AVCodecContext = type { ptr, i32, i32, ptr, i32, i32, ptr, ptr, ptr, i64, i32, i32, ptr, i32, %struct.AVRational, %struct.AVRational, %struct.AVRational, i32, i32, i32, i32, i32, %struct.AVRational, i32, i32, i32, i32, i32, i32, i32, i32, i32, i32, i32, ptr, ptr, i32, float, float, float, float, float, float, float, float, float, i32, i32, i32, i32, i32, i32, i32, i32, i32, i32, i32, i32, ptr, ptr, ptr, i32, i32, i32, i32, i32, i32, i32, i32, i32, i32, %struct.AVChannelLayout, i32, i32, i32, i32, i32, i32, i32, i32, ptr, i32, i32, i32, float, float, i32, i32, i32, i32, i32, ptr, i64, i64, float, float, i32, i32, ptr, ptr, i32, i32, i32, i32, i32, ptr, ptr, ptr, ptr, i32, i32, [8 x i64], i32, i32, i32, i32, i32, i32, i32, ptr, ptr, i32, i32, i32, i32, i32, i32, i32, i32, i32, i32, ptr, ptr, i32, i32, ptr, ptr, ptr, ptr, i32, i32, i64, i32, i32, i64, ptr, i64, ptr, i32, ptr, i32 }
%struct.AVRational = type { i32, i32 }
%struct.AVChannelLayout = type { i32, i32, %union.anon.0, ptr }
%union.anon.0 = type { i64 }
%struct.SHQContext = type { %struct.BlockDSPContext, %struct.IDCTDSPContext, [64 x i8], [64 x i32], i32, i32, ptr, i32 }
%struct.BlockDSPContext = type { ptr, ptr, [2 x ptr] }
%struct.IDCTDSPContext = type { ptr, ptr, ptr, ptr, ptr, ptr, [64 x i8], i32, i32 }
%struct.AVPacket = type { ptr, i64, i64, ptr, i32, i32, i32, ptr, i32, i64, i64, ptr, ptr, %struct.AVRational }

; Function Attrs: nounwind uwtable
define internal i32 @decode_slice_progressive(ptr noundef %0, ptr noundef %1, i32 noundef %2, i32 noundef %3) #1 {
  %5 = alloca ptr, align 8
  %6 = alloca ptr, align 8
  %7 = alloca i32, align 4
  %8 = alloca i32, align 4
  %9 = alloca ptr, align 8
  store ptr %0, ptr %5, align 8, !tbaa !4
  store ptr %1, ptr %6, align 8, !tbaa !68
  store i32 %2, ptr %7, align 4, !tbaa !31
  store i32 %3, ptr %8, align 4, !tbaa !31
  call void @llvm.lifetime.start.p0(i64 8, ptr %9) #10
  %10 = load ptr, ptr %5, align 8, !tbaa !4
  %11 = getelementptr inbounds nuw %struct.AVCodecContext, ptr %10, i32 0, i32 6
  %12 = load ptr, ptr %11, align 8, !tbaa !9
  store ptr %12, ptr %9, align 8, !tbaa !29
  %13 = load ptr, ptr %5, align 8, !tbaa !4
  %14 = getelementptr inbounds nuw %struct.AVCodecContext, ptr %13, i32 0, i32 6
  %15 = load ptr, ptr %14, align 8, !tbaa !9
  %16 = load ptr, ptr %9, align 8, !tbaa !29
  %17 = getelementptr inbounds nuw %struct.SHQContext, ptr %16, i32 0, i32 6
  %18 = load ptr, ptr %17, align 8, !tbaa !57
  %19 = getelementptr inbounds nuw %struct.AVPacket, ptr %18, i32 0, i32 3
  %20 = load ptr, ptr %19, align 8, !tbaa !46
  %21 = load ptr, ptr %9, align 8, !tbaa !29
  %22 = getelementptr inbounds nuw %struct.SHQContext, ptr %21, i32 0, i32 6
  %23 = load ptr, ptr %22, align 8, !tbaa !57
  %24 = getelementptr inbounds nuw %struct.AVPacket, ptr %23, i32 0, i32 4
  %25 = load i32, ptr %24, align 8, !tbaa !49
  %26 = load ptr, ptr %6, align 8, !tbaa !68
  %27 = load ptr, ptr %9, align 8, !tbaa !29
  %28 = getelementptr inbounds nuw %struct.SHQContext, ptr %27, i32 0, i32 6
  %29 = load ptr, ptr %28, align 8, !tbaa !57
  %30 = getelementptr inbounds nuw %struct.AVPacket, ptr %29, i32 0, i32 4
  %31 = load i32, ptr %30, align 8, !tbaa !49
  %32 = load i32, ptr %7, align 4, !tbaa !31
  %33 = call i32 @decode_speedhq_field(ptr noundef %15, ptr noundef %20, i32 noundef %25, ptr noundef %26, i32 noundef 0, i32 noundef 4, i32 noundef %31, i32 noundef 1, i32 noundef %32)
  call void @llvm.lifetime.end.p0(i64 8, ptr %9) #10
  ret i32 %33
}