; Function Attrs: nounwind uwtable
define internal range(i32 -1094995529, 1) i32 @decode_slice_progressive(ptr noundef readonly captures(none) %0, ptr noundef readonly captures(none) %1, i32 noundef %2, i32 %3) #1 {
  %5 = getelementptr inbounds nuw i8, ptr %0, i64 32
  %6 = load ptr, ptr %5, align 8, !tbaa !4
  %7 = getelementptr inbounds nuw i8, ptr %6, i64 480
  %8 = load ptr, ptr %7, align 8, !tbaa !50
  %9 = getelementptr inbounds nuw i8, ptr %8, i64 24
  %10 = load ptr, ptr %9, align 8, !tbaa !37
  %11 = getelementptr inbounds nuw i8, ptr %8, i64 32
  %12 = load i32, ptr %11, align 8, !tbaa !39
  %13 = tail call fastcc i32 @decode_speedhq_field(ptr noundef %6, ptr noundef %10, i32 noundef %12, ptr noundef %1, i32 noundef 0, i32 noundef 4, i32 noundef %12, i32 noundef 1, i32 noundef %2)
  ret i32 %13
}